; Function Attrs: mustprogress uwtable
define hidden void @_ZN11cmd_context22register_builtin_sortsEP11decl_plugin(ptr noundef nonnull align 8 dereferenceable(872) %this, ptr noundef %p) local_unnamed_addr #4 align 2 personality ptr @__gxx_personality_v0 {
entry:
  %names = alloca %class.svector.156, align 8
  store ptr null, ptr %names, align 8
  %m_logic = getelementptr inbounds i8, ptr %this, i64 248
  %vtable = load ptr, ptr %p, align 8
  %vfn = getelementptr inbounds i8, ptr %vtable, i64 120
  %0 = load ptr, ptr %vfn, align 8
  invoke void %0(ptr noundef nonnull align 8 dereferenceable(20) %p, ptr noundef nonnull align 8 dereferenceable(8) %names, ptr noundef nonnull align 8 dereferenceable(8) %m_logic)
          to label %invoke.cont unwind label %lpad.loopexit.split-lp

invoke.cont:                                      ; preds = %entry
  %m_family_id.i = getelementptr inbounds i8, ptr %p, i64 16
  %1 = load i32, ptr %m_family_id.i, align 8
  %2 = load ptr, ptr %names, align 8
  %cmp.i.i = icmp eq ptr %2, null
  br i1 %cmp.i.i, label %_ZN7svectorI12builtin_namejED2Ev.exit, label %_ZN6vectorI12builtin_nameLb0EjE3endEv.exit

_ZN6vectorI12builtin_nameLb0EjE3endEv.exit:       ; preds = %invoke.cont
  %arrayidx.i.i = getelementptr inbounds i8, ptr %2, i64 -4
  %3 = load i32, ptr %arrayidx.i.i, align 4
  %4 = zext i32 %3 to i64
  %add.ptr.i = getelementptr inbounds %struct.builtin_name, ptr %2, i64 %4
  %cmp.not9 = icmp eq i32 %3, 0
  br i1 %cmp.not9, label %if.then.i.i.i, label %for.body.lr.ph

for.body.lr.ph:                                   ; preds = %_ZN6vectorI12builtin_nameLb0EjE3endEv.exit
  %m_pmanager.i = getelementptr inbounds i8, ptr %this, i64 312
  br label %for.body

for.body:                                         ; preds = %for.body.lr.ph, %for.inc
  %__begin1.010 = phi ptr [ %2, %for.body.lr.ph ], [ %incdec.ptr, %for.inc ]
  %5 = load ptr, ptr %m_pmanager.i, align 8
  %tobool.not.i = icmp eq ptr %5, null
  br i1 %tobool.not.i, label %if.then.i, label %invoke.cont7

if.then.i:                                        ; preds = %for.body
  invoke void @_ZN11cmd_context12init_managerEv(ptr noundef nonnull align 8 dereferenceable(872) %this)
          to label %if.then.i.invoke.cont7_crit_edge unwind label %lpad.loopexit

if.then.i.invoke.cont7_crit_edge:                 ; preds = %if.then.i
  %.pre = load ptr, ptr %m_pmanager.i, align 8
  br label %invoke.cont7

invoke.cont7:                                     ; preds = %if.then.i.invoke.cont7_crit_edge, %for.body
  %6 = phi ptr [ %.pre, %if.then.i.invoke.cont7_crit_edge ], [ %5, %for.body ]
  %m_name = getelementptr inbounds i8, ptr %__begin1.010, i64 8
  %7 = load i32, ptr %__begin1.010, align 8
  %call10 = invoke noundef ptr @_ZN13pdecl_manager21mk_psort_builtin_declERK6symbolii(ptr noundef nonnull align 8 dereferenceable(192) %6, ptr noundef nonnull align 8 dereferenceable(8) %m_name, i32 noundef %1, i32 noundef %7)
          to label %invoke.cont9 unwind label %lpad.loopexit

invoke.cont9:                                     ; preds = %invoke.cont7
  %m_name.i = getelementptr inbounds i8, ptr %call10, i64 24
  invoke void @_ZN11cmd_context6insertERK6symbolP10psort_decl(ptr noundef nonnull align 8 dereferenceable(872) %this, ptr noundef nonnull align 8 dereferenceable(8) %m_name.i, ptr noundef nonnull %call10)
          to label %for.inc unwind label %lpad.loopexit

for.inc:                                          ; preds = %invoke.cont9
  %incdec.ptr = getelementptr inbounds i8, ptr %__begin1.010, i64 16
  %cmp.not = icmp eq ptr %incdec.ptr, %add.ptr.i
  br i1 %cmp.not, label %for.end, label %for.body

lpad.loopexit:                                    ; preds = %invoke.cont7, %if.then.i, %invoke.cont9
  %lpad.loopexit7 = landingpad { ptr, i32 }
          cleanup
  br label %lpad

lpad.loopexit.split-lp:                           ; preds = %entry
  %lpad.loopexit.split-lp8 = landingpad { ptr, i32 }
          cleanup
  br label %lpad

lpad:                                             ; preds = %lpad.loopexit.split-lp, %lpad.loopexit
  %lpad.phi = phi { ptr, i32 } [ %lpad.loopexit7, %lpad.loopexit ], [ %lpad.loopexit.split-lp8, %lpad.loopexit.split-lp ]
  call void @_ZN7svectorI12builtin_namejED2Ev(ptr noundef nonnull align 8 dereferenceable(8) %names) #25
  resume { ptr, i32 } %lpad.phi

for.end:                                          ; preds = %for.inc
  %.pre11 = load ptr, ptr %names, align 8
  %tobool.not.i.i.i = icmp eq ptr %.pre11, null
  br i1 %tobool.not.i.i.i, label %_ZN7svectorI12builtin_namejED2Ev.exit, label %if.then.i.i.i

if.then.i.i.i:                                    ; preds = %_ZN6vectorI12builtin_nameLb0EjE3endEv.exit, %for.end
  %8 = phi ptr [ %.pre11, %for.end ], [ %2, %_ZN6vectorI12builtin_nameLb0EjE3endEv.exit ]
  %add.ptr.i.i.i.i = getelementptr inbounds i8, ptr %8, i64 -8
  invoke void @_ZN6memory10deallocateEPv(ptr noundef nonnull %add.ptr.i.i.i.i)
          to label %_ZN7svectorI12builtin_namejED2Ev.exit unwind label %terminate.lpad.i.i

terminate.lpad.i.i:                               ; preds = %if.then.i.i.i
  %9 = landingpad { ptr, i32 }
          catch ptr null
  %10 = extractvalue { ptr, i32 } %9, 0
  call void @__clang_call_terminate(ptr %10) #24
  unreachable

_ZN7svectorI12builtin_namejED2Ev.exit:            ; preds = %invoke.cont, %for.end, %if.then.i.i.i
  ret void
}